target datalayout = "e-m:e-p270:32:32-p271:32:32-p272:64:64-i64:64-i128:128-f80:128-n8:16:32:64-S128"
target triple = "x86_64-pc-linux-gnu"

@lcdGammaLUT = hidden global [151 x ptr] zeroinitializer, align 16
@lcdInvGammaLUT = hidden global [151 x ptr] zeroinitializer, align 16

; Function Attrs: nounwind uwtable
define hidden void @initLUT(i32 noundef %0) #0 {
  %2 = alloca i32, align 4
  %3 = alloca i32, align 4
  %4 = alloca i32, align 4
  %5 = alloca double, align 8
  %6 = alloca double, align 8
  %7 = alloca double, align 8
  %8 = alloca double, align 8
  %9 = alloca double, align 8
  store i32 %0, ptr %2, align 4
  %10 = load i32, ptr %2, align 4
  %11 = sub nsw i32 %10, 100
  store i32 %11, ptr %4, align 4
  %12 = call noalias ptr @malloc(i64 noundef 256) #7
  %13 = load i32, ptr %4, align 4
  %14 = sext i32 %13 to i64
  %15 = getelementptr inbounds [151 x ptr], ptr @lcdGammaLUT, i64 0, i64 %14
  store ptr %12, ptr %15, align 8
  %16 = call noalias ptr @malloc(i64 noundef 256) #7
  %17 = load i32, ptr %4, align 4
  %18 = sext i32 %17 to i64
  %19 = getelementptr inbounds [151 x ptr], ptr @lcdInvGammaLUT, i64 0, i64 %18
  store ptr %16, ptr %19, align 8
  %20 = load i32, ptr %2, align 4
  %21 = icmp eq i32 %20, 100
  br i1 %21, label %22, label %49

22:                                               ; preds = %1
  store i32 0, ptr %3, align 4
  br label %23

23:                                               ; preds = %45, %22
  %24 = load i32, ptr %3, align 4
  %25 = icmp slt i32 %24, 256
  br i1 %25, label %26, label %48

26:                                               ; preds = %23
  %27 = load i32, ptr %3, align 4
  %28 = trunc i32 %27 to i8
  %29 = load i32, ptr %4, align 4
  %30 = sext i32 %29 to i64
  %31 = getelementptr inbounds [151 x ptr], ptr @lcdGammaLUT, i64 0, i64 %30
  %32 = load ptr, ptr %31, align 8
  %33 = load i32, ptr %3, align 4
  %34 = sext i32 %33 to i64
  %35 = getelementptr inbounds i8, ptr %32, i64 %34
  store i8 %28, ptr %35, align 1
  %36 = load i32, ptr %3, align 4
  %37 = trunc i32 %36 to i8
  %38 = load i32, ptr %4, align 4
  %39 = sext i32 %38 to i64
  %40 = getelementptr inbounds [151 x ptr], ptr @lcdInvGammaLUT, i64 0, i64 %39
  %41 = load ptr, ptr %40, align 8
  %42 = load i32, ptr %3, align 4
  %43 = sext i32 %42 to i64
  %44 = getelementptr inbounds i8, ptr %41, i64 %43
  store i8 %37, ptr %44, align 1
  br label %45

45:                                               ; preds = %26
  %46 = load i32, ptr %3, align 4
  %47 = add nsw i32 %46, 1
  store i32 %47, ptr %3, align 4
  br label %23, !llvm.loop !12

48:                                               ; preds = %23
  br label %111

49:                                               ; preds = %1
  %50 = load i32, ptr %2, align 4
  %51 = sitofp i32 %50 to double
  %52 = fdiv double %51, 1.000000e+02
  store double %52, ptr %5, align 8
  %53 = load double, ptr %5, align 8
  %54 = fdiv double 1.000000e+00, %53
  store double %54, ptr %6, align 8
  %55 = load i32, ptr %4, align 4
  %56 = sext i32 %55 to i64
  %57 = getelementptr inbounds [151 x ptr], ptr @lcdGammaLUT, i64 0, i64 %56
  %58 = load ptr, ptr %57, align 8
  %59 = getelementptr inbounds i8, ptr %58, i64 0
  store i8 0, ptr %59, align 1
  %60 = load i32, ptr %4, align 4
  %61 = sext i32 %60 to i64
  %62 = getelementptr inbounds [151 x ptr], ptr @lcdInvGammaLUT, i64 0, i64 %61
  %63 = load ptr, ptr %62, align 8
  %64 = getelementptr inbounds i8, ptr %63, i64 0
  store i8 0, ptr %64, align 1
  %65 = load i32, ptr %4, align 4
  %66 = sext i32 %65 to i64
  %67 = getelementptr inbounds [151 x ptr], ptr @lcdGammaLUT, i64 0, i64 %66
  %68 = load ptr, ptr %67, align 8
  %69 = getelementptr inbounds i8, ptr %68, i64 255
  store i8 -1, ptr %69, align 1
  %70 = load i32, ptr %4, align 4
  %71 = sext i32 %70 to i64
  %72 = getelementptr inbounds [151 x ptr], ptr @lcdInvGammaLUT, i64 0, i64 %71
  %73 = load ptr, ptr %72, align 8
  %74 = getelementptr inbounds i8, ptr %73, i64 255
  store i8 -1, ptr %74, align 1
  store i32 1, ptr %3, align 4
  br label %75

75:                                               ; preds = %108, %49
  %76 = load i32, ptr %3, align 4
  %77 = icmp slt i32 %76, 255
  br i1 %77, label %78, label %111

78:                                               ; preds = %75
  %79 = load i32, ptr %3, align 4
  %80 = sitofp i32 %79 to double
  %81 = fdiv double %80, 2.550000e+02
  store double %81, ptr %7, align 8
  %82 = load double, ptr %7, align 8
  %83 = load double, ptr %6, align 8
  %84 = call double @pow(double noundef %82, double noundef %83) #8
  store double %84, ptr %8, align 8
  %85 = load double, ptr %7, align 8
  %86 = load double, ptr %5, align 8
  %87 = call double @pow(double noundef %85, double noundef %86) #8
  store double %87, ptr %9, align 8
  %88 = load double, ptr %8, align 8
  %89 = fmul double 2.550000e+02, %88
  %90 = fptoui double %89 to i8
  %91 = load i32, ptr %4, align 4
  %92 = sext i32 %91 to i64
  %93 = getelementptr inbounds [151 x ptr], ptr @lcdGammaLUT, i64 0, i64 %92
  %94 = load ptr, ptr %93, align 8
  %95 = load i32, ptr %3, align 4
  %96 = sext i32 %95 to i64
  %97 = getelementptr inbounds i8, ptr %94, i64 %96
  store i8 %90, ptr %97, align 1
  %98 = load double, ptr %9, align 8
  %99 = fmul double 2.550000e+02, %98
  %100 = fptoui double %99 to i8
  %101 = load i32, ptr %4, align 4
  %102 = sext i32 %101 to i64
  %103 = getelementptr inbounds [151 x ptr], ptr @lcdInvGammaLUT, i64 0, i64 %102
  %104 = load ptr, ptr %103, align 8
  %105 = load i32, ptr %3, align 4
  %106 = sext i32 %105 to i64
  %107 = getelementptr inbounds i8, ptr %104, i64 %106
  store i8 %100, ptr %107, align 1
  br label %108

108:                                              ; preds = %78
  %109 = load i32, ptr %3, align 4
  %110 = add nsw i32 %109, 1
  store i32 %110, ptr %3, align 4
  br label %75, !llvm.loop !13

111:                                              ; preds = %75, %48
  ret void
}