; Function Attrs: nofree nounwind memory(readwrite, argmem: write) uwtable
define hidden void @initLUT(i32 noundef %0) local_unnamed_addr #4 {
  %2 = add nsw i32 %0, -100
  %3 = tail call noalias dereferenceable_or_null(256) ptr @malloc(i64 noundef 256) #11
  %4 = sext i32 %2 to i64
  %5 = getelementptr inbounds [151 x ptr], ptr @lcdGammaLUT, i64 0, i64 %4
  store ptr %3, ptr %5, align 8
  %6 = tail call noalias dereferenceable_or_null(256) ptr @malloc(i64 noundef 256) #11
  %7 = getelementptr inbounds [151 x ptr], ptr @lcdInvGammaLUT, i64 0, i64 %4
  store ptr %6, ptr %7, align 8
  %8 = icmp eq i32 %0, 100
  br i1 %8, label %.preheader, label %14

.preheader:                                       ; preds = %1, %.preheader
  %indvars.iv36 = phi i64 [ %indvars.iv.next37, %.preheader ], [ 0, %1 ]
  %9 = trunc i64 %indvars.iv36 to i8
  %10 = load ptr, ptr %5, align 8
  %11 = getelementptr inbounds i8, ptr %10, i64 %indvars.iv36
  store i8 %9, ptr %11, align 1
  %12 = load ptr, ptr %7, align 8
  %13 = getelementptr inbounds i8, ptr %12, i64 %indvars.iv36
  store i8 %9, ptr %13, align 1
  %indvars.iv.next37 = add nuw nsw i64 %indvars.iv36, 1
  %exitcond39.not = icmp eq i64 %indvars.iv.next37, 256
  br i1 %exitcond39.not, label %.loopexit, label %.preheader, !llvm.loop !10

14:                                               ; preds = %1
  %15 = sitofp i32 %0 to double
  %16 = fdiv double %15, 1.000000e+02
  %17 = fdiv double 1.000000e+00, %16
  store i8 0, ptr %3, align 1
  store i8 0, ptr %6, align 1
  %18 = getelementptr inbounds i8, ptr %3, i64 255
  store i8 -1, ptr %18, align 1
  %19 = getelementptr inbounds i8, ptr %6, i64 255
  store i8 -1, ptr %19, align 1
  br label %20

20:                                               ; preds = %14, %20
  %indvars.iv = phi i64 [ 1, %14 ], [ %indvars.iv.next, %20 ]
  %21 = trunc nuw nsw i64 %indvars.iv to i32
  %22 = uitofp nneg i32 %21 to double
  %23 = fdiv double %22, 2.550000e+02
  %24 = tail call double @pow(double noundef %23, double noundef %17) #10
  %25 = tail call double @pow(double noundef %23, double noundef %16) #10
  %26 = fmul double %24, 2.550000e+02
  %27 = fptoui double %26 to i8
  %28 = load ptr, ptr %5, align 8
  %29 = getelementptr inbounds i8, ptr %28, i64 %indvars.iv
  store i8 %27, ptr %29, align 1
  %30 = fmul double %25, 2.550000e+02
  %31 = fptoui double %30 to i8
  %32 = load ptr, ptr %7, align 8
  %33 = getelementptr inbounds i8, ptr %32, i64 %indvars.iv
  store i8 %31, ptr %33, align 1
  %indvars.iv.next = add nuw nsw i64 %indvars.iv, 1
  %exitcond.not = icmp eq i64 %indvars.iv.next, 255
  br i1 %exitcond.not, label %.loopexit, label %20, !llvm.loop !11

.loopexit:                                        ; preds = %20, %.preheader
  ret void
}